; Function Attrs: nounwind uwtable
define hidden void @je_large_dalloc_finish(ptr noundef %0, ptr noundef %1) local_unnamed_addr #0 {
  %3 = alloca i8, align 1
  %.val = load i64, ptr %1, align 8, !tbaa !93
  %4 = and i64 %.val, 4095
  %5 = getelementptr inbounds nuw [0 x %struct.atomic_p_t], ptr @je_arenas, i64 0, i64 %4
  %6 = load atomic i64, ptr %5 monotonic, align 8
  %.0.i.i = inttoptr i64 %6 to ptr
  call void @llvm.lifetime.start.p0(i64 1, ptr nonnull %3) #11
  store i8 0, ptr %3, align 1, !tbaa !71
  %7 = getelementptr inbounds nuw i8, ptr %.0.i.i, i64 10648
  call void @je_pa_dalloc(ptr noundef %0, ptr noundef nonnull %7, ptr noundef nonnull %1, ptr noundef nonnull %3) #11
  %8 = load i8, ptr %3, align 1, !tbaa !71, !range !72, !noundef !73
  %9 = trunc nuw i8 %8 to i1
  br i1 %9, label %10, label %large_dalloc_finish_impl.exit

10:                                               ; preds = %2
  call void @je_arena_handle_deferred_work(ptr noundef %0, ptr noundef nonnull %.0.i.i) #11
  br label %large_dalloc_finish_impl.exit

large_dalloc_finish_impl.exit:                    ; preds = %2, %10
  call void @llvm.lifetime.end.p0(i64 1, ptr nonnull %3) #11
  ret void
}